target datalayout = "e-m:e-p270:32:32-p271:32:32-p272:64:64-i64:64-i128:128-f80:128-n8:16:32:64-S128"
target triple = "x86_64-pc-linux-gnu"

%struct.H5FL_reg_head_t = type { i8, i32, i32, ptr, i64, ptr }
%struct.H5FD_sec2_t = type { %struct.H5FD_t, i32, i64, i64, i8, [1024 x i8], i64, i64, i8 }
%struct.H5FD_t = type { i64, ptr, i64, i32, i64, i64, i64, i64, i64, i8 }

@.str.4 = private unnamed_addr constant [102 x i8] c"generated/home/dtcxzyw/WorkSpace/Projects/compilers/llvm-opt-benchmark/bench/hdf5/hdf5/src/H5FDsec2.c\00", align 1
@.str.12 = private unnamed_addr constant [37 x i8] c"%s, errno = %d, error message = '%s'\00", align 1
@H5_H5FD_sec2_t_reg_free_list = internal global %struct.H5FL_reg_head_t { i8 0, i32 0, i32 0, ptr @.str.19, i64 1160, ptr null }, align 8
@__func__.H5FD__sec2_close = private unnamed_addr constant [17 x i8] c"H5FD__sec2_close\00", align 1
@H5E_IO_g = external global i64, align 8
@H5E_CANTCLOSEFILE_g = external global i64, align 8
@.str.20 = private unnamed_addr constant [21 x i8] c"unable to close file\00", align 1

; Function Attrs: nounwind uwtable
define internal i32 @H5FD__sec2_close(ptr noundef %0) #0 {
  %2 = alloca ptr, align 8
  %3 = alloca ptr, align 8
  %4 = alloca i32, align 4
  %5 = alloca i8, align 1
  %6 = alloca i32, align 4
  store ptr %0, ptr %2, align 8
  %7 = load ptr, ptr %2, align 8
  store ptr %7, ptr %3, align 8
  store i32 0, ptr %4, align 4
  store i8 0, ptr %5, align 1
  %8 = load ptr, ptr %3, align 8
  %9 = getelementptr inbounds %struct.H5FD_sec2_t, ptr %8, i32 0, i32 1
  %10 = load i32, ptr %9, align 8
  %11 = call i32 @close(i32 noundef %10)
  %12 = icmp slt i32 %11, 0
  br i1 %12, label %13, label %33

13:                                               ; preds = %1
  %14 = call ptr @__errno_location() #8
  %15 = load i32, ptr %14, align 4
  store i32 %15, ptr %6, align 4
  br label %16

16:                                               ; preds = %13
  br label %17

17:                                               ; preds = %16
  br label %18

18:                                               ; preds = %17
  %19 = load i64, ptr @H5E_IO_g, align 8
  %20 = load i64, ptr @H5E_CANTCLOSEFILE_g, align 8
  %21 = load i32, ptr %6, align 4
  %22 = load i32, ptr %6, align 4
  %23 = call ptr @strerror(i32 noundef %22) #6
  %24 = call i32 (ptr, ptr, i32, i64, i64, ptr, ...) @H5E_printf_stack(ptr noundef @.str.4, ptr noundef @__func__.H5FD__sec2_close, i32 noundef 427, i64 noundef %19, i64 noundef %20, ptr noundef @.str.12, ptr noundef @.str.20, i32 noundef %21, ptr noundef %23)
  br label %25

25:                                               ; preds = %18
  store i8 1, ptr %5, align 1
  %26 = load i8, ptr %5, align 1
  %27 = trunc i8 %26 to i1
  %28 = zext i1 %27 to i8
  store i8 %28, ptr %5, align 1
  br label %29

29:                                               ; preds = %25
  br label %30

30:                                               ; preds = %29
  store i32 -1, ptr %4, align 4
  br label %36

31:                                               ; No predecessors!
  br label %32

32:                                               ; preds = %31
  br label %33

33:                                               ; preds = %32, %1
  %34 = load ptr, ptr %3, align 8
  %35 = call ptr @H5FL_reg_free(ptr noundef @H5_H5FD_sec2_t_reg_free_list, ptr noundef %34)
  store ptr %35, ptr %3, align 8
  br label %36

36:                                               ; preds = %33, %30
  %37 = load i32, ptr %4, align 4
  ret i32 %37
}