; Function Attrs: nounwind uwtable
define internal range(i32 -1, 1) i32 @H5FD__sec2_close(ptr noundef %0) #0 {
  %2 = getelementptr inbounds i8, ptr %0, i64 80
  %3 = load i32, ptr %2, align 8
  %4 = tail call i32 @close(i32 noundef %3) #15
  %5 = icmp slt i32 %4, 0
  br i1 %5, label %6, label %13

6:                                                ; preds = %1
  %7 = tail call ptr @__errno_location() #17
  %8 = load i32, ptr %7, align 4
  %9 = load i64, ptr @H5E_IO_g, align 8
  %10 = load i64, ptr @H5E_CANTCLOSEFILE_g, align 8
  %11 = tail call ptr @strerror(i32 noundef %8) #15
  %12 = tail call i32 (ptr, ptr, i32, i64, i64, ptr, ...) @H5E_printf_stack(ptr noundef nonnull @.str.4, ptr noundef nonnull @__func__.H5FD__sec2_close, i32 noundef 427, i64 noundef %9, i64 noundef %10, ptr noundef nonnull @.str.12, ptr noundef nonnull @.str.20, i32 noundef %8, ptr noundef %11) #15
  br label %15

13:                                               ; preds = %1
  %14 = tail call ptr @H5FL_reg_free(ptr noundef nonnull @H5_H5FD_sec2_t_reg_free_list, ptr noundef nonnull %0) #15
  br label %15

15:                                               ; preds = %13, %6
  %.0 = phi i32 [ -1, %6 ], [ 0, %13 ]
  ret i32 %.0
}